; ModuleID = '1020.c'
source_filename = "1020.c"
target datalayout = "e-m:e-p270:32:32-p271:32:32-p272:64:64-i64:64-f80:128-n8:16:32:64-S128"
target triple = "x86_64-pc-linux-gnu"

@.str = private unnamed_addr constant [3 x i8] c"%d\00", align 1
@.str.1 = private unnamed_addr constant [3 x i8] c"1\0A\00", align 1

; Function Attrs: noinline nounwind uwtable
define dso_local i32 @main() #0 {
  %1 = alloca i32, align 4
  %2 = alloca i8*, align 8
  %3 = alloca [81 x i8], align 16
  %4 = alloca i32, align 4
  %5 = alloca i32, align 4
  store i32 0, i32* %1, align 4
  %6 = call i32 (i8*, ...) @__isoc99_scanf(i8* getelementptr inbounds ([3 x i8], [3 x i8]* @.str, i64 0, i64 0), i32* %5)
  %7 = call i32 @getchar()
  store i32 0, i32* %4, align 4
  br label %8

8:                                                ; preds = %36, %0
  %9 = load i32, i32* %4, align 4
  %10 = load i32, i32* %5, align 4
  %11 = icmp slt i32 %9, %10
  br i1 %11, label %12, label %39

12:                                               ; preds = %8
  %13 = getelementptr inbounds [81 x i8], [81 x i8]* %3, i64 0, i64 0
  %14 = call i32 (i8*, ...) bitcast (i32 (...)* @gets to i32 (i8*, ...)*)(i8* %13)
  %15 = getelementptr inbounds [81 x i8], [81 x i8]* %3, i64 0, i64 0
  store i8* %15, i8** %2, align 8
  br label %16

16:                                               ; preds = %32, %12
  %17 = load i8*, i8** %2, align 8
  %18 = getelementptr inbounds [81 x i8], [81 x i8]* %3, i64 0, i64 0
  %19 = call i64 @strlen(i8* %18) #3
  %20 = getelementptr inbounds [81 x i8], [81 x i8]* %3, i64 0, i64 %19
  %21 = icmp ult i8* %17, %20
  br i1 %21, label %22, label %35

22:                                               ; preds = %16
  %23 = load i8*, i8** %2, align 8
  %24 = getelementptr inbounds [81 x i8], [81 x i8]* %3, i64 0, i64 0
  %25 = call i64 @strlen(i8* %24) #3
  %26 = sub i64 %25, 1
  %27 = getelementptr inbounds [81 x i8], [81 x i8]* %3, i64 0, i64 %26
  %28 = icmp eq i8* %23, %27
  br i1 %28, label %29, label %31

29:                                               ; preds = %22
  %30 = call i32 (i8*, ...) @printf(i8* getelementptr inbounds ([3 x i8], [3 x i8]* @.str.1, i64 0, i64 0))
  br label %31

31:                                               ; preds = %29, %22
  br label %32

32:                                               ; preds = %31
  %33 = load i8*, i8** %2, align 8
  %34 = getelementptr inbounds i8, i8* %33, i32 1
  store i8* %34, i8** %2, align 8
  br label %16

35:                                               ; preds = %16
  br label %36

36:                                               ; preds = %35
  %37 = load i32, i32* %4, align 4
  %38 = add nsw i32 %37, 1
  store i32 %38, i32* %4, align 4
  br label %8

39:                                               ; preds = %8
  ret i32 0
}

declare dso_local i32 @__isoc99_scanf(i8*, ...) #1

declare dso_local i32 @getchar() #1

declare dso_local i32 @gets(...) #1

; Function Attrs: nounwind readonly
declare dso_local i64 @strlen(i8*) #2

declare dso_local i32 @printf(i8*, ...) #1


!llvm.module.flags = !{!0}
!llvm.ident = !{!1}

!0 = !{i32 1, !"wchar_size", i32 4}
!1 = !{!"clang version 10.0.0-4ubuntu1 "}
